; Function Attrs: nounwind uwtable
define ptr @l_Lean_Expr_app4_x3f(ptr noundef %0, ptr noundef %1) local_unnamed_addr #0 {
  %3 = tail call zeroext i8 @l_Lean_Expr_isAppOfArity(ptr noundef %0, ptr noundef %1, ptr noundef nonnull inttoptr (i64 9 to ptr)) #4
  %4 = icmp eq i8 %3, 0
  br i1 %4, label %63, label %5

5:                                                ; preds = %2
  %6 = tail call ptr @l_Lean_Expr_appFn_x21(ptr noundef %0) #4
  %7 = tail call ptr @l_Lean_Expr_appFn_x21(ptr noundef %6) #4
  %8 = tail call ptr @l_Lean_Expr_appFn_x21(ptr noundef %7) #4
  %9 = tail call ptr @l_Lean_Expr_appArg_x21(ptr noundef %8) #4
  %10 = ptrtoint ptr %8 to i64
  %11 = and i64 %10, 1
  %.not = icmp eq i64 %11, 0
  br i1 %.not, label %12, label %lean_dec.exit31

12:                                               ; preds = %5
  %13 = load i32, ptr %8, align 4, !tbaa !8
  %14 = icmp sgt i32 %13, 1
  br i1 %14, label %15, label %17, !prof !11

15:                                               ; preds = %12
  %16 = add nsw i32 %13, -1
  store i32 %16, ptr %8, align 4, !tbaa !8
  br label %lean_dec.exit31

17:                                               ; preds = %12
  %.not.i = icmp eq i32 %13, 0
  br i1 %.not.i, label %lean_dec.exit31, label %18

18:                                               ; preds = %17
  tail call void @lean_dec_ref_cold(ptr noundef nonnull %8) #4
  br label %lean_dec.exit31

lean_dec.exit31:                                  ; preds = %18, %17, %15, %5
  %19 = tail call ptr @l_Lean_Expr_appArg_x21(ptr noundef %7) #4
  %20 = ptrtoint ptr %7 to i64
  %21 = and i64 %20, 1
  %.not39 = icmp eq i64 %21, 0
  br i1 %.not39, label %22, label %lean_dec.exit30

22:                                               ; preds = %lean_dec.exit31
  %23 = load i32, ptr %7, align 4, !tbaa !8
  %24 = icmp sgt i32 %23, 1
  br i1 %24, label %25, label %27, !prof !11

25:                                               ; preds = %22
  %26 = add nsw i32 %23, -1
  store i32 %26, ptr %7, align 4, !tbaa !8
  br label %lean_dec.exit30

27:                                               ; preds = %22
  %.not.i32 = icmp eq i32 %23, 0
  br i1 %.not.i32, label %lean_dec.exit30, label %28

28:                                               ; preds = %27
  tail call void @lean_dec_ref_cold(ptr noundef nonnull %7) #4
  br label %lean_dec.exit30

lean_dec.exit30:                                  ; preds = %28, %27, %25, %lean_dec.exit31
  %29 = tail call ptr @l_Lean_Expr_appArg_x21(ptr noundef %6) #4
  %30 = ptrtoint ptr %6 to i64
  %31 = and i64 %30, 1
  %.not40 = icmp eq i64 %31, 0
  br i1 %.not40, label %32, label %lean_dec.exit

32:                                               ; preds = %lean_dec.exit30
  %33 = load i32, ptr %6, align 4, !tbaa !8
  %34 = icmp sgt i32 %33, 1
  br i1 %34, label %35, label %37, !prof !11

35:                                               ; preds = %32
  %36 = add nsw i32 %33, -1
  store i32 %36, ptr %6, align 4, !tbaa !8
  br label %lean_dec.exit

37:                                               ; preds = %32
  %.not.i34 = icmp eq i32 %33, 0
  br i1 %.not.i34, label %lean_dec.exit, label %38

38:                                               ; preds = %37
  tail call void @lean_dec_ref_cold(ptr noundef nonnull %6) #4
  br label %lean_dec.exit

lean_dec.exit:                                    ; preds = %38, %37, %35, %lean_dec.exit30
  %39 = tail call ptr @l_Lean_Expr_appArg_x21(ptr noundef %0) #4
  tail call void @lean_inc_heartbeat() #4
  %40 = tail call noalias ptr @mi_malloc_small(i64 noundef 24) #4
  %41 = icmp eq ptr %40, null
  br i1 %41, label %42, label %lean_alloc_ctor.exit

42:                                               ; preds = %lean_dec.exit
  tail call void @lean_internal_panic_out_of_memory() #5
  unreachable

lean_alloc_ctor.exit:                             ; preds = %lean_dec.exit
  %43 = getelementptr inbounds nuw i8, ptr %40, i64 4
  store i32 1, ptr %40, align 4, !tbaa !8
  store i32 131096, ptr %43, align 4
  %44 = getelementptr inbounds nuw i8, ptr %40, i64 8
  store ptr %29, ptr %44, align 8, !tbaa !4
  %45 = getelementptr inbounds nuw i8, ptr %40, i64 16
  store ptr %39, ptr %45, align 8, !tbaa !4
  tail call void @lean_inc_heartbeat() #4
  %46 = tail call noalias ptr @mi_malloc_small(i64 noundef 24) #4
  %47 = icmp eq ptr %46, null
  br i1 %47, label %48, label %lean_alloc_ctor.exit36

48:                                               ; preds = %lean_alloc_ctor.exit
  tail call void @lean_internal_panic_out_of_memory() #5
  unreachable

lean_alloc_ctor.exit36:                           ; preds = %lean_alloc_ctor.exit
  %49 = getelementptr inbounds nuw i8, ptr %46, i64 4
  store i32 1, ptr %46, align 4, !tbaa !8
  store i32 131096, ptr %49, align 4
  %50 = getelementptr inbounds nuw i8, ptr %46, i64 8
  store ptr %19, ptr %50, align 8, !tbaa !4
  %51 = getelementptr inbounds nuw i8, ptr %46, i64 16
  store ptr %40, ptr %51, align 8, !tbaa !4
  tail call void @lean_inc_heartbeat() #4
  %52 = tail call noalias ptr @mi_malloc_small(i64 noundef 24) #4
  %53 = icmp eq ptr %52, null
  br i1 %53, label %54, label %lean_alloc_ctor.exit37

54:                                               ; preds = %lean_alloc_ctor.exit36
  tail call void @lean_internal_panic_out_of_memory() #5
  unreachable

lean_alloc_ctor.exit37:                           ; preds = %lean_alloc_ctor.exit36
  %55 = getelementptr inbounds nuw i8, ptr %52, i64 4
  store i32 1, ptr %52, align 4, !tbaa !8
  store i32 131096, ptr %55, align 4
  %56 = getelementptr inbounds nuw i8, ptr %52, i64 8
  store ptr %9, ptr %56, align 8, !tbaa !4
  %57 = getelementptr inbounds nuw i8, ptr %52, i64 16
  store ptr %46, ptr %57, align 8, !tbaa !4
  tail call void @lean_inc_heartbeat() #4
  %58 = tail call noalias ptr @mi_malloc_small(i64 noundef 16) #4
  %59 = icmp eq ptr %58, null
  br i1 %59, label %60, label %lean_alloc_ctor.exit38

60:                                               ; preds = %lean_alloc_ctor.exit37
  tail call void @lean_internal_panic_out_of_memory() #5
  unreachable

lean_alloc_ctor.exit38:                           ; preds = %lean_alloc_ctor.exit37
  %61 = getelementptr inbounds nuw i8, ptr %58, i64 4
  store i32 1, ptr %58, align 4, !tbaa !8
  store i32 16842768, ptr %61, align 4
  %62 = getelementptr inbounds nuw i8, ptr %58, i64 8
  store ptr %52, ptr %62, align 8, !tbaa !4
  br label %63

63:                                               ; preds = %2, %lean_alloc_ctor.exit38
  %.0 = phi ptr [ %58, %lean_alloc_ctor.exit38 ], [ inttoptr (i64 1 to ptr), %2 ]
  ret ptr %.0
}